target datalayout = "e-m:e-p270:32:32-p271:32:32-p272:64:64-i64:64-i128:128-f80:128-n8:16:32:64-S128"
target triple = "x86_64-pc-linux-gnu"

%"class.triggers::trigger_t.base" = type <{ ptr, i64, i8, i8, i8, i8, i8, [3 x i8], i32, i32, i32, i32, i32 }>
%"class.std::optional.113" = type { %"struct.std::_Optional_base.114" }
%"struct.std::_Optional_base.114" = type { %"struct.std::_Optional_payload.116" }
%"struct.std::_Optional_payload.116" = type { %"struct.std::_Optional_payload_base.base", [3 x i8] }
%"struct.std::_Optional_payload_base.base" = type <{ %"union.std::_Optional_payload_base<triggers::match_result_t>::_Storage", i8 }>
%"union.std::_Optional_payload_base<triggers::match_result_t>::_Storage" = type { %"struct.triggers::match_result_t" }
%"struct.triggers::match_result_t" = type { i32, i32 }
%"class.triggers::icount_t" = type { %"class.triggers::trigger_t.base", i8, i8, i32, i32, i8, i8, i32 }
%"struct.std::_Optional_payload_base.117" = type <{ %"union.std::_Optional_payload_base<triggers::match_result_t>::_Storage", i8, [3 x i8] }>

; Function Attrs: mustprogress nounwind uwtable
define linkonce_odr void @_ZNSt22_Optional_payload_baseIN8triggers14match_result_tEE8_StorageIS1_Lb1EEC2Ev(ptr noundef nonnull align 4 dereferenceable(8) %0) unnamed_addr #4 comdat align 2 {
  %2 = alloca ptr, align 8
  store ptr %0, ptr %2, align 8, !tbaa !327
  ret void
}

; Function Attrs: inlinehint mustprogress nounwind uwtable
define linkonce_odr void @_ZSt10_ConstructIN8triggers14match_result_tEJS1_EEvPT_DpOT0_(ptr noundef %0, ptr noundef nonnull align 4 dereferenceable(8) %1) #9 comdat {
  %3 = alloca ptr, align 8
  %4 = alloca ptr, align 8
  store ptr %0, ptr %3, align 8, !tbaa !219
  store ptr %1, ptr %4, align 8, !tbaa !219
  %5 = load ptr, ptr %3, align 8, !tbaa !219
  %6 = load ptr, ptr %4, align 8, !tbaa !219
  call void @llvm.memcpy.p0.p0.i64(ptr align 4 %5, ptr align 4 %6, i64 8, i1 false), !tbaa.struct !238
  ret void
}

; Function Attrs: mustprogress nounwind uwtable
define linkonce_odr void @_ZNSt22_Optional_payload_baseIN8triggers14match_result_tEEC2Ev(ptr noundef nonnull align 4 dereferenceable(9) %0) unnamed_addr #4 comdat align 2 {
  %2 = alloca ptr, align 8
  store ptr %0, ptr %2, align 8, !tbaa !323
  %3 = load ptr, ptr %2, align 8
  %4 = getelementptr inbounds nuw %"struct.std::_Optional_payload_base.117", ptr %3, i32 0, i32 0
  call void @_ZNSt22_Optional_payload_baseIN8triggers14match_result_tEE8_StorageIS1_Lb1EEC2Ev(ptr noundef nonnull align 4 dereferenceable(8) %4) #3
  %5 = getelementptr inbounds nuw %"struct.std::_Optional_payload_base.117", ptr %3, i32 0, i32 1
  store i8 0, ptr %5, align 4, !tbaa !325
  ret void
}

; Function Attrs: mustprogress nounwind uwtable
define linkonce_odr void @_ZNSt22_Optional_payload_baseIN8triggers14match_result_tEE12_M_constructIJS1_EEEvDpOT_(ptr noundef nonnull align 4 dereferenceable(9) %0, ptr noundef nonnull align 4 dereferenceable(8) %1) #4 comdat align 2 personality ptr @__gxx_personality_v0 {
  %3 = alloca ptr, align 8
  %4 = alloca ptr, align 8
  store ptr %0, ptr %3, align 8, !tbaa !323
  store ptr %1, ptr %4, align 8, !tbaa !219
  %5 = load ptr, ptr %3, align 8
  %6 = getelementptr inbounds nuw %"struct.std::_Optional_payload_base.117", ptr %5, i32 0, i32 0
  %7 = load ptr, ptr %4, align 8, !tbaa !219
  invoke void @_ZSt10_ConstructIN8triggers14match_result_tEJS1_EEvPT_DpOT0_(ptr noundef %6, ptr noundef nonnull align 4 dereferenceable(8) %7)
          to label %8 unwind label %10

8:                                                ; preds = %2
  %9 = getelementptr inbounds nuw %"struct.std::_Optional_payload_base.117", ptr %5, i32 0, i32 1
  store i8 1, ptr %9, align 4, !tbaa !325
  ret void

10:                                               ; preds = %2
  %11 = landingpad { ptr, i32 }
          catch ptr null
  %12 = extractvalue { ptr, i32 } %11, 0
  call void @__clang_call_terminate(ptr %12) #19
  unreachable
}

; Function Attrs: mustprogress nounwind uwtable
define linkonce_odr noundef nonnull align 4 dereferenceable(8) ptr @_ZNSt22_Optional_payload_baseIN8triggers14match_result_tEE6_M_getEv(ptr noundef nonnull align 4 dereferenceable(9) %0) #4 comdat align 2 {
  %2 = alloca ptr, align 8
  store ptr %0, ptr %2, align 8, !tbaa !323
  %3 = load ptr, ptr %2, align 8
  %4 = getelementptr inbounds nuw %"struct.std::_Optional_payload_base.117", ptr %3, i32 0, i32 0
  ret ptr %4
}

; Function Attrs: mustprogress nounwind uwtable
define linkonce_odr void @_ZNSt17_Optional_payloadIN8triggers14match_result_tELb1ELb1ELb1EEC2Ev(ptr noundef nonnull align 4 dereferenceable(9) %0) unnamed_addr #4 comdat align 2 {
  %2 = alloca ptr, align 8
  store ptr %0, ptr %2, align 8, !tbaa !321
  %3 = load ptr, ptr %2, align 8
  call void @_ZNSt22_Optional_payload_baseIN8triggers14match_result_tEEC2Ev(ptr noundef nonnull align 4 dereferenceable(9) %3) #3
  ret void
}

; Function Attrs: mustprogress nounwind uwtable
define linkonce_odr void @_ZNSt19_Optional_base_implIN8triggers14match_result_tESt14_Optional_baseIS1_Lb1ELb1EEE12_M_constructIJS1_EEEvDpOT_(ptr noundef nonnull align 1 dereferenceable(1) %0, ptr noundef nonnull align 4 dereferenceable(8) %1) #4 comdat align 2 {
  %3 = alloca ptr, align 8
  %4 = alloca ptr, align 8
  store ptr %0, ptr %3, align 8, !tbaa !335
  store ptr %1, ptr %4, align 8, !tbaa !219
  %5 = load ptr, ptr %3, align 8
  %6 = getelementptr inbounds nuw %"struct.std::_Optional_base.114", ptr %5, i32 0, i32 0
  %7 = load ptr, ptr %4, align 8, !tbaa !219
  call void @_ZNSt22_Optional_payload_baseIN8triggers14match_result_tEE12_M_constructIJS1_EEEvDpOT_(ptr noundef nonnull align 4 dereferenceable(9) %6, ptr noundef nonnull align 4 dereferenceable(8) %7) #3
  ret void
}

; Function Attrs: mustprogress nounwind uwtable
define linkonce_odr noundef nonnull align 4 dereferenceable(8) ptr @_ZNSt19_Optional_base_implIN8triggers14match_result_tESt14_Optional_baseIS1_Lb1ELb1EEE6_M_getEv(ptr noundef nonnull align 1 dereferenceable(1) %0) #4 comdat align 2 {
  %2 = alloca ptr, align 8
  store ptr %0, ptr %2, align 8, !tbaa !335
  %3 = load ptr, ptr %2, align 8
  br label %4

4:                                                ; preds = %1
  br label %5

5:                                                ; preds = %4
  br label %6

6:                                                ; preds = %5
  %7 = getelementptr inbounds nuw %"struct.std::_Optional_base.114", ptr %3, i32 0, i32 0
  %8 = call noundef nonnull align 4 dereferenceable(8) ptr @_ZNSt22_Optional_payload_baseIN8triggers14match_result_tEE6_M_getEv(ptr noundef nonnull align 4 dereferenceable(9) %7) #3
  ret ptr %8
}

; Function Attrs: mustprogress nounwind uwtable
define linkonce_odr noundef zeroext i1 @_ZNKSt19_Optional_base_implIN8triggers14match_result_tESt14_Optional_baseIS1_Lb1ELb1EEE13_M_is_engagedEv(ptr noundef nonnull align 1 dereferenceable(1) %0) #4 comdat align 2 {
  %2 = alloca ptr, align 8
  store ptr %0, ptr %2, align 8, !tbaa !335
  %3 = load ptr, ptr %2, align 8
  %4 = getelementptr inbounds nuw %"struct.std::_Optional_base.114", ptr %3, i32 0, i32 0
  %5 = getelementptr inbounds nuw %"struct.std::_Optional_payload_base.117", ptr %4, i32 0, i32 1
  %6 = load i8, ptr %5, align 4, !tbaa !325, !range !18, !noundef !19
  %7 = trunc i8 %6 to i1
  ret i1 %7
}

; Function Attrs: mustprogress nounwind uwtable
define linkonce_odr void @_ZNSt14_Optional_baseIN8triggers14match_result_tELb1ELb1EEC2Ev(ptr noundef nonnull align 4 dereferenceable(12) %0) unnamed_addr #4 comdat align 2 {
  %2 = alloca ptr, align 8
  store ptr %0, ptr %2, align 8, !tbaa !319
  %3 = load ptr, ptr %2, align 8
  %4 = getelementptr inbounds nuw %"struct.std::_Optional_base.114", ptr %3, i32 0, i32 0
  call void @_ZNSt17_Optional_payloadIN8triggers14match_result_tELb1ELb1ELb1EEC2Ev(ptr noundef nonnull align 4 dereferenceable(9) %4) #3
  ret void
}

; Function Attrs: noinline noreturn nounwind uwtable
define linkonce_odr hidden void @__clang_call_terminate(ptr noundef %0) #7 comdat {
  %2 = call ptr @__cxa_begin_catch(ptr %0) #3
  call void @_ZSt9terminatev() #19
  unreachable
}

; Function Attrs: mustprogress nounwind uwtable
define linkonce_odr noundef nonnull align 4 dereferenceable(12) ptr @_ZNSt8optionalIN8triggers14match_result_tEEaSIS1_EENSt9enable_ifIX7__and_vISt6__not_ISt7is_sameIS2_NSt9remove_cvINSt16remove_referenceIT_E4typeEE4typeEEES5_ISt6__and_IJSt9is_scalarIS1_ES6_IS1_NSt5decayIS9_E4typeEEEEESt16is_constructibleIS1_JS9_EESt13is_assignableIRS1_S9_EEERS2_E4typeEOS9_(ptr noundef nonnull align 4 dereferenceable(12) %0, ptr noundef nonnull align 4 dereferenceable(8) %1) #4 comdat align 2 {
  %3 = alloca ptr, align 8
  %4 = alloca ptr, align 8
  store ptr %0, ptr %3, align 8, !tbaa !215
  store ptr %1, ptr %4, align 8, !tbaa !219
  %5 = load ptr, ptr %3, align 8
  %6 = call noundef zeroext i1 @_ZNKSt19_Optional_base_implIN8triggers14match_result_tESt14_Optional_baseIS1_Lb1ELb1EEE13_M_is_engagedEv(ptr noundef nonnull align 1 dereferenceable(1) %5) #3
  br i1 %6, label %7, label %10

7:                                                ; preds = %2
  %8 = load ptr, ptr %4, align 8, !tbaa !219
  %9 = call noundef nonnull align 4 dereferenceable(8) ptr @_ZNSt19_Optional_base_implIN8triggers14match_result_tESt14_Optional_baseIS1_Lb1ELb1EEE6_M_getEv(ptr noundef nonnull align 1 dereferenceable(1) %5) #3
  call void @llvm.memcpy.p0.p0.i64(ptr align 4 %9, ptr align 4 %8, i64 8, i1 false), !tbaa.struct !238
  br label %12

10:                                               ; preds = %2
  %11 = load ptr, ptr %4, align 8, !tbaa !219
  call void @_ZNSt19_Optional_base_implIN8triggers14match_result_tESt14_Optional_baseIS1_Lb1ELb1EEE12_M_constructIJS1_EEEvDpOT_(ptr noundef nonnull align 1 dereferenceable(1) %5, ptr noundef nonnull align 4 dereferenceable(8) %11) #3
  br label %12

12:                                               ; preds = %10, %7
  ret ptr %5
}

; Function Attrs: mustprogress nounwind uwtable
define linkonce_odr void @_ZN8triggers14match_result_tC2ENS_8timing_tENS_8action_tE(ptr noundef nonnull align 4 dereferenceable(8) %0, i32 noundef %1, i32 noundef %2) unnamed_addr #4 comdat align 2 {
  %4 = alloca ptr, align 8
  %5 = alloca i32, align 4
  %6 = alloca i32, align 4
  store ptr %0, ptr %4, align 8, !tbaa !219
  store i32 %1, ptr %5, align 4, !tbaa !221
  store i32 %2, ptr %6, align 4, !tbaa !223
  %7 = load ptr, ptr %4, align 8
  %8 = load i32, ptr %5, align 4, !tbaa !221
  %9 = getelementptr inbounds nuw %"struct.triggers::match_result_t", ptr %7, i32 0, i32 0
  store i32 %8, ptr %9, align 4, !tbaa !224
  %10 = load i32, ptr %6, align 4, !tbaa !223
  %11 = getelementptr inbounds nuw %"struct.triggers::match_result_t", ptr %7, i32 0, i32 1
  store i32 %10, ptr %11, align 4, !tbaa !226
  ret void
}

; Function Attrs: mustprogress nounwind uwtable
define linkonce_odr void @_ZNSt8optionalIN8triggers14match_result_tEEC2ESt9nullopt_t(ptr noundef nonnull align 4 dereferenceable(12) %0) unnamed_addr #4 comdat align 2 {
  %2 = alloca ptr, align 8
  store ptr %0, ptr %2, align 8, !tbaa !215
  %3 = load ptr, ptr %2, align 8
  call void @_ZNSt14_Optional_baseIN8triggers14match_result_tELb1ELb1EEC2Ev(ptr noundef nonnull align 4 dereferenceable(12) %3) #3
  ret void
}

; Function Attrs: mustprogress nounwind uwtable
define { i64, i8 } @_ZN8triggers8icount_t18detect_icount_fireEP11processor_t(ptr noundef nonnull align 8 dereferenceable(64) %0, ptr noundef %1) unnamed_addr #4 align 2 personality ptr @__gxx_personality_v0 {
  %3 = alloca %"class.std::optional.113", align 4
  %4 = alloca ptr, align 8
  %5 = alloca ptr, align 8
  %6 = alloca %"struct.triggers::match_result_t", align 4
  %7 = alloca { i64, i8 }, align 8
  store ptr %0, ptr %4, align 8, !tbaa !232
  store ptr %1, ptr %5, align 8, !tbaa !8
  %8 = load ptr, ptr %4, align 8
  %9 = load ptr, ptr %5, align 8, !tbaa !8
  %10 = call noundef zeroext i1 @_ZNK8triggers9trigger_t12common_matchEP11processor_tb(ptr noundef nonnull align 8 dereferenceable(44) %8, ptr noundef %9, i1 noundef zeroext false) #3
  br i1 %10, label %12, label %11

11:                                               ; preds = %2
  call void @_ZNSt8optionalIN8triggers14match_result_tEEC2ESt9nullopt_t(ptr noundef nonnull align 4 dereferenceable(12) %3) #3
  br label %24

12:                                               ; preds = %2
  call void @_ZNSt8optionalIN8triggers14match_result_tEEC2ESt9nullopt_t(ptr noundef nonnull align 4 dereferenceable(12) %3) #3
  %13 = getelementptr inbounds nuw %"class.triggers::icount_t", ptr %8, i32 0, i32 5
  %14 = load i8, ptr %13, align 8, !tbaa !234, !range !18, !noundef !19
  %15 = trunc i8 %14 to i1
  br i1 %15, label %16, label %23

16:                                               ; preds = %12
  %17 = getelementptr inbounds nuw %"class.triggers::icount_t", ptr %8, i32 0, i32 5
  store i8 0, ptr %17, align 8, !tbaa !234
  %18 = getelementptr inbounds nuw %"class.triggers::icount_t", ptr %8, i32 0, i32 2
  store i8 1, ptr %18, align 1, !tbaa !236
  call void @llvm.lifetime.start.p0(i64 8, ptr %6) #3
  %19 = getelementptr inbounds nuw %"class.triggers::icount_t", ptr %8, i32 0, i32 7
  %20 = load i32, ptr %19, align 4, !tbaa !237
  invoke void @_ZN8triggers14match_result_tC2ENS_8timing_tENS_8action_tE(ptr noundef nonnull align 4 dereferenceable(8) %6, i32 noundef 0, i32 noundef %20)
          to label %21 unwind label %28

21:                                               ; preds = %16
  %22 = call noundef nonnull align 4 dereferenceable(12) ptr @_ZNSt8optionalIN8triggers14match_result_tEEaSIS1_EENSt9enable_ifIX7__and_vISt6__not_ISt7is_sameIS2_NSt9remove_cvINSt16remove_referenceIT_E4typeEE4typeEEES5_ISt6__and_IJSt9is_scalarIS1_ES6_IS1_NSt5decayIS9_E4typeEEEEESt16is_constructibleIS1_JS9_EESt13is_assignableIRS1_S9_EEERS2_E4typeEOS9_(ptr noundef nonnull align 4 dereferenceable(12) %3, ptr noundef nonnull align 4 dereferenceable(8) %6) #3
  call void @llvm.lifetime.end.p0(i64 8, ptr %6) #3
  br label %23

23:                                               ; preds = %21, %12
  br label %24

24:                                               ; preds = %23, %11
  %25 = getelementptr inbounds nuw %"class.std::optional.113", ptr %3, i32 0, i32 0
  %26 = getelementptr inbounds nuw %"struct.std::_Optional_base.114", ptr %25, i32 0, i32 0
  call void @llvm.memcpy.p0.p0.i64(ptr align 8 %7, ptr align 4 %26, i64 12, i1 false)
  %27 = load { i64, i8 }, ptr %7, align 8
  ret { i64, i8 } %27

28:                                               ; preds = %16
  %29 = landingpad { ptr, i32 }
          catch ptr null
  %30 = extractvalue { ptr, i32 } %29, 0
  call void @__clang_call_terminate(ptr %30) #19
  unreachable
}