; Function Attrs: mustprogress nounwind uwtable
define { i64, i8 } @_ZN8triggers8icount_t18detect_icount_fireEP11processor_t(ptr noundef nonnull align 8 dereferenceable(64) %0, ptr noundef readonly captures(none) %1) unnamed_addr #6 align 2 personality ptr @__gxx_personality_v0 {
  %3 = tail call noundef zeroext i1 @_ZNK8triggers9trigger_t12common_matchEP11processor_tb(ptr noundef nonnull align 8 dereferenceable(44) %0, ptr noundef %1, i1 noundef zeroext false) #22
  br i1 %3, label %4, label %11

4:                                                ; preds = %2
  %5 = getelementptr inbounds nuw i8, ptr %0, i64 56
  %6 = load i8, ptr %5, align 8, !tbaa !187, !range !14, !noundef !15
  %7 = trunc nuw i8 %6 to i1
  br i1 %7, label %_ZNSt8optionalIN8triggers14match_result_tEEaSIS1_EENSt9enable_ifIX7__and_vISt6__not_ISt7is_sameIS2_NSt9remove_cvINSt16remove_referenceIT_E4typeEE4typeEEES5_ISt6__and_IJSt9is_scalarIS1_ES6_IS1_NSt5decayIS9_E4typeEEEEESt16is_constructibleIS1_JS9_EESt13is_assignableIRS1_S9_EEERS2_E4typeEOS9_.exit, label %11

_ZNSt8optionalIN8triggers14match_result_tEEaSIS1_EENSt9enable_ifIX7__and_vISt6__not_ISt7is_sameIS2_NSt9remove_cvINSt16remove_referenceIT_E4typeEE4typeEEES5_ISt6__and_IJSt9is_scalarIS1_ES6_IS1_NSt5decayIS9_E4typeEEEEESt16is_constructibleIS1_JS9_EESt13is_assignableIRS1_S9_EEERS2_E4typeEOS9_.exit: ; preds = %4
  store i8 0, ptr %5, align 8, !tbaa !187
  %8 = getelementptr inbounds nuw i8, ptr %0, i64 45
  store i8 1, ptr %8, align 1, !tbaa !189
  %9 = getelementptr inbounds nuw i8, ptr %0, i64 60
  %10 = load i32, ptr %9, align 4, !tbaa !190
  %.sroa.4.0.insert.ext = zext i32 %10 to i64
  %.sroa.4.0.insert.shift = shl nuw i64 %.sroa.4.0.insert.ext, 32
  br label %11

11:                                               ; preds = %2, %4, %_ZNSt8optionalIN8triggers14match_result_tEEaSIS1_EENSt9enable_ifIX7__and_vISt6__not_ISt7is_sameIS2_NSt9remove_cvINSt16remove_referenceIT_E4typeEE4typeEEES5_ISt6__and_IJSt9is_scalarIS1_ES6_IS1_NSt5decayIS9_E4typeEEEEESt16is_constructibleIS1_JS9_EESt13is_assignableIRS1_S9_EEERS2_E4typeEOS9_.exit
  %.sroa.02.0 = phi i64 [ %.sroa.4.0.insert.shift, %_ZNSt8optionalIN8triggers14match_result_tEEaSIS1_EENSt9enable_ifIX7__and_vISt6__not_ISt7is_sameIS2_NSt9remove_cvINSt16remove_referenceIT_E4typeEE4typeEEES5_ISt6__and_IJSt9is_scalarIS1_ES6_IS1_NSt5decayIS9_E4typeEEEEESt16is_constructibleIS1_JS9_EESt13is_assignableIRS1_S9_EEERS2_E4typeEOS9_.exit ], [ undef, %4 ], [ undef, %2 ]
  %.sroa.2.0 = phi i8 [ 1, %_ZNSt8optionalIN8triggers14match_result_tEEaSIS1_EENSt9enable_ifIX7__and_vISt6__not_ISt7is_sameIS2_NSt9remove_cvINSt16remove_referenceIT_E4typeEE4typeEEES5_ISt6__and_IJSt9is_scalarIS1_ES6_IS1_NSt5decayIS9_E4typeEEEEESt16is_constructibleIS1_JS9_EESt13is_assignableIRS1_S9_EEERS2_E4typeEOS9_.exit ], [ 0, %4 ], [ 0, %2 ]
  %.fca.0.insert = insertvalue { i64, i8 } poison, i64 %.sroa.02.0, 0
  %.fca.1.insert = insertvalue { i64, i8 } %.fca.0.insert, i8 %.sroa.2.0, 1
  ret { i64, i8 } %.fca.1.insert
}